target datalayout = "e-m:e-p270:32:32-p271:32:32-p272:64:64-i64:64-i128:128-f80:128-n8:16:32:64-S128"
target triple = "x86_64-pc-linux-gnu"

%struct.CVodeMemRec = type { double, ptr, ptr, i32, i32, i32, double, double, ptr, i32, ptr, ptr, i32, ptr, i32, i32, double, double, ptr, i32, i32, i32, ptr, ptr, ptr, i32, i32, ptr, ptr, ptr, i32, double, i32, i32, double, ptr, ptr, i32, ptr, ptr, i32, i32, i32, double, ptr, ptr, [13 x ptr], ptr, ptr, ptr, ptr, ptr, [13 x ptr], ptr, ptr, ptr, ptr, [13 x ptr], ptr, ptr, ptr, ptr, ptr, i32, [13 x ptr], ptr, ptr, ptr, ptr, ptr, i32, double, i32, i32, i32, i32, i32, double, double, double, double, double, double, double, double, [14 x double], [6 x double], [13 x double], double, double, double, double, double, double, double, double, double, double, double, i32, ptr, i32, i64, i32, i32, i32, i32, i32, double, double, double, i64, i64, i64, i64, i64, i64, i64, i64, i64, ptr, i64, i64, ptr, i64, i64, i64, i64, i64, i64, i32, i64, i64, i64, i64, i64, i64, double, double, double, ptr, ptr, ptr, ptr, ptr, i32, i32, i64, double, double, double, i32, double, i32, i32, i32, i32, i32, i32, i32, i32, i32, i32, i32, i32, i32, i32, i32, i32, ptr, ptr, ptr, i32, [6 x [4 x double]], i32, i64, ptr, i32, ptr, ptr, double, double, double, ptr, ptr, ptr, double, double, i32, i32, i64, ptr, i32, i32, ptr, i32 }

@.str = private unnamed_addr constant [7 x i8] c"CVODES\00", align 1
@.str.6 = private unnamed_addr constant [26 x i8] c"cvode_mem = NULL illegal.\00", align 1
@.str.34 = private unnamed_addr constant [44 x i8] c"Forward sensitivity analysis not activated.\00", align 1
@.str.35 = private unnamed_addr constant [22 x i8] c"CVodeSensSStolerances\00", align 1
@.str.36 = private unnamed_addr constant [21 x i8] c"reltolS < 0 illegal.\00", align 1
@.str.37 = private unnamed_addr constant [24 x i8] c"abstolS = NULL illegal.\00", align 1
@.str.38 = private unnamed_addr constant [45 x i8] c"abstolS has negative component(s) (illegal).\00", align 1

; Function Attrs: nounwind uwtable
define i32 @CVodeSensSStolerances(ptr noundef %0, double noundef %1, ptr noundef %2) #0 {
  %4 = alloca i32, align 4
  %5 = alloca ptr, align 8
  %6 = alloca double, align 8
  %7 = alloca ptr, align 8
  %8 = alloca ptr, align 8
  %9 = alloca i32, align 4
  %10 = alloca i32, align 4
  store ptr %0, ptr %5, align 8, !tbaa !101
  store double %1, ptr %6, align 8, !tbaa !102
  store ptr %2, ptr %7, align 8, !tbaa !208
  call void @llvm.lifetime.start.p0(i64 8, ptr %8) #8
  call void @llvm.lifetime.start.p0(i64 4, ptr %9) #8
  %11 = load ptr, ptr %5, align 8, !tbaa !101
  %12 = icmp eq ptr %11, null
  br i1 %12, label %13, label %14

13:                                               ; preds = %3
  call void (ptr, i32, ptr, ptr, ptr, ...) @cvProcessError(ptr noundef null, i32 noundef -21, ptr noundef @.str, ptr noundef @.str.35, ptr noundef @.str.6)
  store i32 -21, ptr %4, align 4
  store i32 1, ptr %10, align 4
  br label %106

14:                                               ; preds = %3
  %15 = load ptr, ptr %5, align 8, !tbaa !101
  store ptr %15, ptr %8, align 8, !tbaa !7
  %16 = load ptr, ptr %8, align 8, !tbaa !7
  %17 = getelementptr inbounds nuw %struct.CVodeMemRec, ptr %16, i32 0, i32 165
  %18 = load i32, ptr %17, align 8, !tbaa !94
  %19 = icmp eq i32 %18, 0
  br i1 %19, label %20, label %22

20:                                               ; preds = %14
  %21 = load ptr, ptr %8, align 8, !tbaa !7
  call void (ptr, i32, ptr, ptr, ptr, ...) @cvProcessError(ptr noundef %21, i32 noundef -40, ptr noundef @.str, ptr noundef @.str.35, ptr noundef @.str.34)
  store i32 -40, ptr %4, align 4
  store i32 1, ptr %10, align 4
  br label %106

22:                                               ; preds = %14
  %23 = load double, ptr %6, align 8, !tbaa !102
  %24 = fcmp olt double %23, 0.000000e+00
  br i1 %24, label %25, label %27

25:                                               ; preds = %22
  %26 = load ptr, ptr %8, align 8, !tbaa !7
  call void (ptr, i32, ptr, ptr, ptr, ...) @cvProcessError(ptr noundef %26, i32 noundef -22, ptr noundef @.str, ptr noundef @.str.35, ptr noundef @.str.36)
  store i32 -22, ptr %4, align 4
  store i32 1, ptr %10, align 4
  br label %106

27:                                               ; preds = %22
  %28 = load ptr, ptr %7, align 8, !tbaa !208
  %29 = icmp eq ptr %28, null
  br i1 %29, label %30, label %32

30:                                               ; preds = %27
  %31 = load ptr, ptr %8, align 8, !tbaa !7
  call void (ptr, i32, ptr, ptr, ptr, ...) @cvProcessError(ptr noundef %31, i32 noundef -22, ptr noundef @.str, ptr noundef @.str.35, ptr noundef @.str.37)
  store i32 -22, ptr %4, align 4
  store i32 1, ptr %10, align 4
  br label %106

32:                                               ; preds = %27
  store i32 0, ptr %9, align 4, !tbaa !3
  br label %33

33:                                               ; preds = %49, %32
  %34 = load i32, ptr %9, align 4, !tbaa !3
  %35 = load ptr, ptr %8, align 8, !tbaa !7
  %36 = getelementptr inbounds nuw %struct.CVodeMemRec, ptr %35, i32 0, i32 20
  %37 = load i32, ptr %36, align 4, !tbaa !184
  %38 = icmp slt i32 %34, %37
  br i1 %38, label %39, label %52

39:                                               ; preds = %33
  %40 = load ptr, ptr %7, align 8, !tbaa !208
  %41 = load i32, ptr %9, align 4, !tbaa !3
  %42 = sext i32 %41 to i64
  %43 = getelementptr inbounds double, ptr %40, i64 %42
  %44 = load double, ptr %43, align 8, !tbaa !102
  %45 = fcmp olt double %44, 0.000000e+00
  br i1 %45, label %46, label %48

46:                                               ; preds = %39
  %47 = load ptr, ptr %8, align 8, !tbaa !7
  call void (ptr, i32, ptr, ptr, ptr, ...) @cvProcessError(ptr noundef %47, i32 noundef -22, ptr noundef @.str, ptr noundef @.str.35, ptr noundef @.str.38)
  store i32 -22, ptr %4, align 4
  store i32 1, ptr %10, align 4
  br label %106

48:                                               ; preds = %39
  br label %49

49:                                               ; preds = %48
  %50 = load i32, ptr %9, align 4, !tbaa !3
  %51 = add nsw i32 %50, 1
  store i32 %51, ptr %9, align 4, !tbaa !3
  br label %33, !llvm.loop !209

52:                                               ; preds = %33
  %53 = load ptr, ptr %8, align 8, !tbaa !7
  %54 = getelementptr inbounds nuw %struct.CVodeMemRec, ptr %53, i32 0, i32 33
  store i32 1, ptr %54, align 4, !tbaa !74
  %55 = load double, ptr %6, align 8, !tbaa !102
  %56 = load ptr, ptr %8, align 8, !tbaa !7
  %57 = getelementptr inbounds nuw %struct.CVodeMemRec, ptr %56, i32 0, i32 34
  store double %55, ptr %57, align 8, !tbaa !210
  %58 = load ptr, ptr %8, align 8, !tbaa !7
  %59 = getelementptr inbounds nuw %struct.CVodeMemRec, ptr %58, i32 0, i32 164
  %60 = load i32, ptr %59, align 4, !tbaa !93
  %61 = icmp ne i32 %60, 0
  br i1 %61, label %83, label %62

62:                                               ; preds = %52
  %63 = load ptr, ptr %8, align 8, !tbaa !7
  %64 = getelementptr inbounds nuw %struct.CVodeMemRec, ptr %63, i32 0, i32 35
  store ptr null, ptr %64, align 8, !tbaa !211
  %65 = load ptr, ptr %8, align 8, !tbaa !7
  %66 = getelementptr inbounds nuw %struct.CVodeMemRec, ptr %65, i32 0, i32 20
  %67 = load i32, ptr %66, align 4, !tbaa !184
  %68 = sext i32 %67 to i64
  %69 = mul i64 %68, 8
  %70 = call noalias ptr @malloc(i64 noundef %69) #9
  %71 = load ptr, ptr %8, align 8, !tbaa !7
  %72 = getelementptr inbounds nuw %struct.CVodeMemRec, ptr %71, i32 0, i32 35
  store ptr %70, ptr %72, align 8, !tbaa !211
  %73 = load ptr, ptr %8, align 8, !tbaa !7
  %74 = getelementptr inbounds nuw %struct.CVodeMemRec, ptr %73, i32 0, i32 20
  %75 = load i32, ptr %74, align 4, !tbaa !184
  %76 = sext i32 %75 to i64
  %77 = load ptr, ptr %8, align 8, !tbaa !7
  %78 = getelementptr inbounds nuw %struct.CVodeMemRec, ptr %77, i32 0, i32 135
  %79 = load i64, ptr %78, align 8, !tbaa !86
  %80 = add nsw i64 %79, %76
  store i64 %80, ptr %78, align 8, !tbaa !86
  %81 = load ptr, ptr %8, align 8, !tbaa !7
  %82 = getelementptr inbounds nuw %struct.CVodeMemRec, ptr %81, i32 0, i32 164
  store i32 1, ptr %82, align 4, !tbaa !93
  br label %83

83:                                               ; preds = %62, %52
  store i32 0, ptr %9, align 4, !tbaa !3
  br label %84

84:                                               ; preds = %102, %83
  %85 = load i32, ptr %9, align 4, !tbaa !3
  %86 = load ptr, ptr %8, align 8, !tbaa !7
  %87 = getelementptr inbounds nuw %struct.CVodeMemRec, ptr %86, i32 0, i32 20
  %88 = load i32, ptr %87, align 4, !tbaa !184
  %89 = icmp slt i32 %85, %88
  br i1 %89, label %90, label %105

90:                                               ; preds = %84
  %91 = load ptr, ptr %7, align 8, !tbaa !208
  %92 = load i32, ptr %9, align 4, !tbaa !3
  %93 = sext i32 %92 to i64
  %94 = getelementptr inbounds double, ptr %91, i64 %93
  %95 = load double, ptr %94, align 8, !tbaa !102
  %96 = load ptr, ptr %8, align 8, !tbaa !7
  %97 = getelementptr inbounds nuw %struct.CVodeMemRec, ptr %96, i32 0, i32 35
  %98 = load ptr, ptr %97, align 8, !tbaa !211
  %99 = load i32, ptr %9, align 4, !tbaa !3
  %100 = sext i32 %99 to i64
  %101 = getelementptr inbounds double, ptr %98, i64 %100
  store double %95, ptr %101, align 8, !tbaa !102
  br label %102

102:                                              ; preds = %90
  %103 = load i32, ptr %9, align 4, !tbaa !3
  %104 = add nsw i32 %103, 1
  store i32 %104, ptr %9, align 4, !tbaa !3
  br label %84, !llvm.loop !212

105:                                              ; preds = %84
  store i32 0, ptr %4, align 4
  store i32 1, ptr %10, align 4
  br label %106

106:                                              ; preds = %105, %46, %30, %25, %20, %13
  call void @llvm.lifetime.end.p0(i64 4, ptr %9) #8
  call void @llvm.lifetime.end.p0(i64 8, ptr %8) #8
  %107 = load i32, ptr %4, align 4
  ret i32 %107
}