; Function Attrs: nounwind uwtable
define range(i32 -40, 1) i32 @CVodeSensSStolerances(ptr noundef captures(address_is_null) %0, double noundef %1, ptr noundef readonly captures(address_is_null) %2) local_unnamed_addr #0 {
  %4 = icmp eq ptr %0, null
  br i1 %4, label %5, label %6

5:                                                ; preds = %3
  tail call void (ptr, i32, ptr, ptr, ptr, ...) @cvProcessError(ptr noundef null, i32 noundef -21, ptr noundef nonnull @.str, ptr noundef nonnull @.str.35, ptr noundef nonnull @.str.6)
  br label %.loopexit

6:                                                ; preds = %3
  %7 = getelementptr inbounds nuw i8, ptr %0, i64 1808
  %8 = load i32, ptr %7, align 8, !tbaa !132
  %9 = icmp eq i32 %8, 0
  br i1 %9, label %10, label %11

10:                                               ; preds = %6
  tail call void (ptr, i32, ptr, ptr, ptr, ...) @cvProcessError(ptr noundef nonnull %0, i32 noundef -40, ptr noundef nonnull @.str, ptr noundef nonnull @.str.35, ptr noundef nonnull @.str.34)
  br label %.loopexit

11:                                               ; preds = %6
  %12 = fcmp olt double %1, 0.000000e+00
  br i1 %12, label %13, label %14

13:                                               ; preds = %11
  tail call void (ptr, i32, ptr, ptr, ptr, ...) @cvProcessError(ptr noundef nonnull %0, i32 noundef -22, ptr noundef nonnull @.str, ptr noundef nonnull @.str.35, ptr noundef nonnull @.str.36)
  br label %.loopexit

14:                                               ; preds = %11
  %15 = icmp eq ptr %2, null
  br i1 %15, label %19, label %.preheader

.preheader:                                       ; preds = %14
  %16 = getelementptr inbounds nuw i8, ptr %0, i64 140
  %17 = load i32, ptr %16, align 4, !tbaa !133
  %18 = icmp sgt i32 %17, 0
  br i1 %18, label %.lr.ph.preheader, label %._crit_edge

.lr.ph.preheader:                                 ; preds = %.preheader
  %wide.trip.count = zext nneg i32 %17 to i64
  br label %.lr.ph

19:                                               ; preds = %14
  tail call void (ptr, i32, ptr, ptr, ptr, ...) @cvProcessError(ptr noundef nonnull %0, i32 noundef -22, ptr noundef nonnull @.str, ptr noundef nonnull @.str.35, ptr noundef nonnull @.str.37)
  br label %.loopexit

20:                                               ; preds = %.lr.ph
  %indvars.iv.next = add nuw nsw i64 %indvars.iv, 1
  %exitcond.not = icmp eq i64 %indvars.iv.next, %wide.trip.count
  br i1 %exitcond.not, label %._crit_edge, label %.lr.ph, !llvm.loop !162

.lr.ph:                                           ; preds = %.lr.ph.preheader, %20
  %indvars.iv = phi i64 [ 0, %.lr.ph.preheader ], [ %indvars.iv.next, %20 ]
  %21 = getelementptr inbounds nuw double, ptr %2, i64 %indvars.iv
  %22 = load double, ptr %21, align 8, !tbaa !49
  %23 = fcmp olt double %22, 0.000000e+00
  br i1 %23, label %24, label %20

24:                                               ; preds = %.lr.ph
  tail call void (ptr, i32, ptr, ptr, ptr, ...) @cvProcessError(ptr noundef nonnull %0, i32 noundef -22, ptr noundef nonnull @.str, ptr noundef nonnull @.str.35, ptr noundef nonnull @.str.38)
  br label %.loopexit

._crit_edge:                                      ; preds = %20, %.preheader
  %25 = getelementptr inbounds nuw i8, ptr %0, i64 228
  store i32 1, ptr %25, align 4, !tbaa !163
  %26 = getelementptr inbounds nuw i8, ptr %0, i64 232
  store double %1, ptr %26, align 8, !tbaa !164
  %27 = getelementptr inbounds nuw i8, ptr %0, i64 1804
  %28 = load i32, ptr %27, align 4, !tbaa !165
  %.not = icmp eq i32 %28, 0
  br i1 %.not, label %29, label %37

29:                                               ; preds = %._crit_edge
  %30 = getelementptr inbounds nuw i8, ptr %0, i64 240
  %31 = sext i32 %17 to i64
  %32 = shl nsw i64 %31, 3
  %33 = tail call noalias ptr @malloc(i64 noundef %32) #15
  store ptr %33, ptr %30, align 8, !tbaa !166
  %34 = getelementptr inbounds nuw i8, ptr %0, i64 1624
  %35 = load i64, ptr %34, align 8, !tbaa !42
  %36 = add nsw i64 %35, %31
  store i64 %36, ptr %34, align 8, !tbaa !42
  store i32 1, ptr %27, align 4, !tbaa !165
  br label %37

37:                                               ; preds = %29, %._crit_edge
  br i1 %18, label %.lr.ph39, label %.loopexit

.lr.ph39:                                         ; preds = %37
  %38 = getelementptr inbounds nuw i8, ptr %0, i64 240
  %39 = load ptr, ptr %38, align 8, !tbaa !166
  %wide.trip.count44 = zext nneg i32 %17 to i64
  br label %40

40:                                               ; preds = %.lr.ph39, %40
  %indvars.iv41 = phi i64 [ 0, %.lr.ph39 ], [ %indvars.iv.next42, %40 ]
  %41 = getelementptr inbounds nuw double, ptr %2, i64 %indvars.iv41
  %42 = load double, ptr %41, align 8, !tbaa !49
  %43 = getelementptr inbounds nuw double, ptr %39, i64 %indvars.iv41
  store double %42, ptr %43, align 8, !tbaa !49
  %indvars.iv.next42 = add nuw nsw i64 %indvars.iv41, 1
  %exitcond45.not = icmp eq i64 %indvars.iv.next42, %wide.trip.count44
  br i1 %exitcond45.not, label %.loopexit, label %40, !llvm.loop !167

.loopexit:                                        ; preds = %40, %37, %24, %19, %13, %10, %5
  %.031 = phi i32 [ -21, %5 ], [ -40, %10 ], [ -22, %13 ], [ -22, %19 ], [ -22, %24 ], [ 0, %37 ], [ 0, %40 ]
  ret i32 %.031
}